(dp1
S'OriginalConfig'
p2
ccopy_reg
_reconstructor
p3
(cWMCore.Configuration
Configuration
p4
c__builtin__
object
p5
NtRp6
(dp7
S'Site'
p8
g3
(cWMCore.Configuration
ConfigSection
p9
g5
NtRp10
(dp11
S'_internal_skipChecks'
p12
I00
sS'_internal_documentation'
p13
S''
sS'_internal_settings'
p14
c__builtin__
set
p15
((lp16
S'ignoreGlobalBlacklist'
p17
aS'storageSite'
p18
atRp19
sS'_internal_name'
p20
g8
sS'_internal_docstrings'
p21
(dp22
sS'_internal_children'
p23
g15
((ltRp24
sg18
S'T2_IT_Bari'
p25
sg17
I01
sS'_internal_parent_ref'
p26
NsbsS'_internal_sections'
p27
(lp28
S'General'
p29
aS'JobType'
p30
aS'Data'
p31
ag8
aS'User'
p32
aS'Debug'
p33
asg29
g3
(g9
g5
NtRp34
(dp35
S'transferLogs'
p36
I00
sg12
I00
sg13
S''
sg14
g15
((lp37
g36
aS'transferOutputs'
p38
aS'workArea'
p39
aS'requestName'
p40
atRp41
sg20
g29
sg21
(dp42
sg38
I01
sg23
g15
((ltRp43
sg40
S'SkimTau3Mu_DoubleMuonLowMass_Run2018A_v1'
p44
sg26
Nsg39
S'crab_projects'
p45
sbsS'_internal_webapps'
p46
(lp47
sg32
g3
(g9
g5
NtRp48
(dp49
g12
I00
sg13
S''
sg14
g15
((ltRp50
sg20
g32
sg21
(dp51
sg23
g15
((ltRp52
sg26
NsbsS'_internal_components'
p53
(lp54
sg33
g3
(g9
g5
NtRp55
(dp56
g12
I00
sg13
S''
sg14
g15
((ltRp57
sg20
g33
sg21
(dp58
sg23
g15
((ltRp59
sg26
Nsbsg31
g3
(g9
g5
NtRp60
(dp61
S'inputDataset'
p62
S'/DoubleMuonLowMass/Run2018A-17Sep2018-v1/AOD'
p63
sS'outputDatasetTag'
p64
S'SkimTau3Mu_DoubleMuonLowMass_Run2018A_AOD_v1'
p65
sg12
I00
sS'splitting'
p66
S'LumiBased'
p67
sS'unitsPerJob'
p68
I20
sg13
S''
sg14
g15
((lp69
g62
ag64
aS'publication'
p70
ag68
ag66
aS'inputDBS'
p71
aS'lumiMask'
p72
aS'outLFNDirBase'
p73
atRp74
sg20
g31
sg71
S'global'
p75
sg21
(dp76
sg23
g15
((ltRp77
sg73
S'/store/user/rosma/'
p78
sg26
Nsg72
S'https://cms-service-dqm.web.cern.ch/cms-service-dqm/CAF/certification/Collisions18/13TeV/ReReco/Cert_314472-325175_13TeV_17SeptEarlyReReco2018ABC_PromptEraD_Collisions18_JSON.txt'
p79
sg70
I01
sbsg30
g3
(g9
g5
NtRp80
(dp81
g12
I00
sg13
S''
sg14
g15
((lp82
S'psetName'
p83
aS'pluginName'
p84
aS'allowUndistributedCMSSW'
p85
atRp86
sg20
g30
sg21
(dp87
sg84
S'Analysis'
p88
sg23
g15
((ltRp89
sg85
I01
sg83
S'/lustrehome/venditti/Tau3Mu2018_final/CMSSW_10_2_1/src/SkimTools/SkimTau3Mu/test/run_Data2017_PatAndTree_cfg.py'
p90
sg26
NsbsbsS'voGroup'
p91
S''
sS'Server'
p92
S'cmsweb.cern.ch'
p93
sS'instance'
p94
S'prod'
p95
sS'RequestName'
p96
V191120_162700:rosma_crab_SkimTau3Mu_DoubleMuonLowMass_Run2018A_v1
p97
sS'voRole'
p98
S'NULL'
p99
sS'Port'
p100
S''
s.